; Function Attrs: mustprogress uwtable
define noundef zeroext i1 @_ZN3zmq12udp_engine_t13restart_inputEv(ptr noundef nonnull align 8 dereferenceable(17880) %0) unnamed_addr #0 align 2 {
  %2 = getelementptr inbounds nuw i8, ptr %0, i64 17877
  %3 = load i8, ptr %2, align 1, !tbaa !66, !range !97, !noundef !98
  %4 = trunc nuw i8 %3 to i1
  br i1 %4, label %5, label %8

5:                                                ; preds = %1
  %6 = getelementptr inbounds nuw i8, ptr %0, i64 112
  %7 = load ptr, ptr %6, align 8, !tbaa !110
  tail call void @_ZN3zmq11io_object_t10set_pollinEPv(ptr noundef nonnull align 8 dereferenceable(16) %0, ptr noundef %7)
  tail call void @_ZN3zmq12udp_engine_t8in_eventEv(ptr noundef nonnull align 8 dereferenceable(17880) %0)
  br label %8

8:                                                ; preds = %5, %1
  ret i1 true
}